target datalayout = "e-m:e-p270:32:32-p271:32:32-p272:64:64-i64:64-i128:128-f80:128-n8:16:32:64-S128"
target triple = "x86_64-pc-linux-gnu"

%class.SCTPAssocAnalyseDialog = type { %class.QDialog, ptr, i16, ptr }
%class.QDialog = type { %class.QWidget }
%class.QWidget = type { %class.QObject, %class.QPaintDevice.base, ptr }
%class.QObject = type { ptr, %class.QScopedPointer }
%class.QScopedPointer = type { ptr }
%class.QPaintDevice.base = type <{ ptr, i16 }>

; Function Attrs: mustprogress null_pointer_is_valid sspstrong uwtable
define void @_ZN22SCTPAssocAnalyseDialog32on_chunkStatisticsButton_clickedEv(ptr noundef align 8 dereferenceable_or_null(64) %0) #0 align 2 personality ptr @__gxx_personality_v0 {
  %2 = alloca ptr, align 8
  %3 = alloca ptr, align 8
  %4 = alloca i32, align 4
  %5 = alloca ptr, align 8
  %6 = alloca ptr, align 8
  %7 = alloca i32, align 4
  store ptr %0, ptr %2, align 8
  %8 = load ptr, ptr %2, align 8
  call void @llvm.lifetime.start.p0(i64 8, ptr %3) #16
  %9 = getelementptr inbounds nuw %class.SCTPAssocAnalyseDialog, ptr %8, i32 0, i32 2
  %10 = load i16, ptr %9, align 8
  %11 = call noundef ptr @_ZN22SCTPAssocAnalyseDialog9findAssocEP7QWidgett(ptr noundef %8, i16 noundef zeroext %10)
  store ptr %11, ptr %3, align 8
  %12 = load ptr, ptr %3, align 8
  %13 = icmp ne ptr %12, null
  br i1 %13, label %15, label %14

14:                                               ; preds = %1
  store i32 1, ptr %4, align 4
  br label %36

15:                                               ; preds = %1
  call void @llvm.lifetime.start.p0(i64 8, ptr %5) #16
  %16 = call noalias noundef ptr @_Znwm(i64 noundef 128) #20
  %17 = load ptr, ptr %3, align 8
  %18 = getelementptr inbounds nuw %class.SCTPAssocAnalyseDialog, ptr %8, i32 0, i32 3
  %19 = load ptr, ptr %18, align 8
  invoke void @_ZN25SCTPChunkStatisticsDialogC1EP7QWidgetPK16_sctp_assoc_infoP13_capture_file(ptr noundef align 8 dereferenceable_or_null(128) %16, ptr noundef %8, ptr noundef %17, ptr noundef %19)
          to label %20 unwind label %27

20:                                               ; preds = %15
  store ptr %16, ptr %5, align 8
  %21 = load ptr, ptr %5, align 8
  %22 = call noundef zeroext i1 @_ZNK7QWidget11isMinimizedEv(ptr noundef align 8 dereferenceable_or_null(40) %21)
  %23 = zext i1 %22 to i32
  %24 = icmp eq i32 %23, 1
  br i1 %24, label %25, label %31

25:                                               ; preds = %20
  %26 = load ptr, ptr %5, align 8
  call void @_ZN7QWidget10showNormalEv(ptr noundef align 8 dereferenceable_or_null(40) %26)
  br label %33

27:                                               ; preds = %15
  %28 = landingpad { ptr, i32 }
          cleanup
  %29 = extractvalue { ptr, i32 } %28, 0
  store ptr %29, ptr %6, align 8
  %30 = extractvalue { ptr, i32 } %28, 1
  store i32 %30, ptr %7, align 4
  call void @_ZdlPvm(ptr noundef %16, i64 noundef 128) #21
  call void @llvm.lifetime.end.p0(i64 8, ptr %5) #16
  call void @llvm.lifetime.end.p0(i64 8, ptr %3) #16
  br label %39

31:                                               ; preds = %20
  %32 = load ptr, ptr %5, align 8
  call void @_ZN7QWidget4showEv(ptr noundef align 8 dereferenceable_or_null(40) %32)
  br label %33

33:                                               ; preds = %31, %25
  %34 = load ptr, ptr %5, align 8
  call void @_ZN7QWidget5raiseEv(ptr noundef align 8 dereferenceable_or_null(40) %34)
  %35 = load ptr, ptr %5, align 8
  call void @_ZN7QWidget14activateWindowEv(ptr noundef align 8 dereferenceable_or_null(40) %35)
  call void @llvm.lifetime.end.p0(i64 8, ptr %5) #16
  store i32 0, ptr %4, align 4
  br label %36

36:                                               ; preds = %33, %14
  call void @llvm.lifetime.end.p0(i64 8, ptr %3) #16
  %37 = load i32, ptr %4, align 4
  switch i32 %37, label %44 [
    i32 0, label %38
    i32 1, label %38
  ]

38:                                               ; preds = %36, %36
  ret void

39:                                               ; preds = %27
  %40 = load ptr, ptr %6, align 8
  %41 = load i32, ptr %7, align 4
  %42 = insertvalue { ptr, i32 } poison, ptr %40, 0
  %43 = insertvalue { ptr, i32 } %42, i32 %41, 1
  resume { ptr, i32 } %43

44:                                               ; preds = %36
  unreachable
}