; Function Attrs: mustprogress null_pointer_is_valid sspstrong uwtable
define void @_ZN22SCTPAssocAnalyseDialog32on_chunkStatisticsButton_clickedEv(ptr noundef align 8 dereferenceable_or_null(64) %0) local_unnamed_addr #0 align 2 personality ptr @__gxx_personality_v0 {
  %2 = getelementptr inbounds nuw i8, ptr %0, i64 48
  %3 = load i16, ptr %2, align 8
  %4 = tail call noundef ptr @_ZN22SCTPAssocAnalyseDialog9findAssocEP7QWidgett(ptr noundef %0, i16 noundef zeroext %3)
  %.not = icmp eq ptr %4, null
  br i1 %.not, label %16, label %5

5:                                                ; preds = %1
  %6 = tail call noalias noundef dereferenceable_or_null(128) ptr @_Znwm(i64 noundef 128) #11
  %7 = getelementptr inbounds nuw i8, ptr %0, i64 56
  %8 = load ptr, ptr %7, align 8
  invoke void @_ZN25SCTPChunkStatisticsDialogC1EP7QWidgetPK16_sctp_assoc_infoP13_capture_file(ptr noundef align 8 dereferenceable_or_null(128) %6, ptr noundef %0, ptr noundef nonnull %4, ptr noundef %8)
          to label %9 unwind label %12

9:                                                ; preds = %5
  %10 = tail call noundef zeroext i1 @_ZNK7QWidget11isMinimizedEv(ptr noundef align 8 dereferenceable_or_null(40) %6)
  br i1 %10, label %11, label %14

11:                                               ; preds = %9
  tail call void @_ZN7QWidget10showNormalEv(ptr noundef align 8 dereferenceable_or_null(40) %6)
  br label %15

12:                                               ; preds = %5
  %13 = landingpad { ptr, i32 }
          cleanup
  tail call void @_ZdlPvm(ptr noundef %6, i64 noundef 128) #13
  resume { ptr, i32 } %13

14:                                               ; preds = %9
  tail call void @_ZN7QWidget4showEv(ptr noundef align 8 dereferenceable_or_null(40) %6)
  br label %15

15:                                               ; preds = %14, %11
  tail call void @_ZN7QWidget5raiseEv(ptr noundef align 8 dereferenceable_or_null(40) %6)
  tail call void @_ZN7QWidget14activateWindowEv(ptr noundef align 8 dereferenceable_or_null(40) %6)
  br label %16

16:                                               ; preds = %1, %15
  ret void
}